; Function Attrs: mustprogress uwtable
define void @_ZN8proxygen21HTTPDownstreamSession13onHeadersSentERKNS_11HTTPMessageEb(ptr nocapture noundef nonnull align 8 dereferenceable(2504) %this, ptr noundef nonnull align 8 dereferenceable(616) %headers, i1 noundef zeroext %codecWasReusable) unnamed_addr #6 align 2 {
entry:
  %call_.i.i = getelementptr inbounds i8, ptr %this, i64 992
  %0 = load ptr, ptr %call_.i.i, align 8
  %vtable = load ptr, ptr %0, align 8
  %vfn = getelementptr inbounds i8, ptr %vtable, i64 128
  %1 = load ptr, ptr %vfn, align 8
  %call2 = tail call noundef zeroext i1 %1(ptr noundef nonnull align 8 dereferenceable(8) %0)
  br i1 %call2, label %if.end12, label %if.then

if.then:                                          ; preds = %entry
  br i1 %codecWasReusable, label %if.then3, label %if.else10

if.then3:                                         ; preds = %if.then
  %call4 = tail call noundef zeroext i16 @_ZNK8proxygen11HTTPMessage13getStatusCodeEv(ptr noundef nonnull align 8 dereferenceable(616) %headers)
  %cmp = icmp ugt i16 %call4, 499
  br i1 %cmp, label %if.then5, label %if.else

if.then5:                                         ; preds = %if.then3
  %closeReason_.i = getelementptr inbounds i8, ptr %this, i64 1540
  %2 = load i32, ptr %closeReason_.i, align 4
  %cmp.i = icmp eq i32 %2, 13
  br i1 %cmp.i, label %if.then.i, label %if.end12

if.then.i:                                        ; preds = %if.then5
  store i32 4, ptr %closeReason_.i, align 4
  br label %if.end12

if.else:                                          ; preds = %if.then3
  %cmp6 = icmp ugt i16 %call4, 399
  %closeReason_.i2 = getelementptr inbounds i8, ptr %this, i64 1540
  %3 = load i32, ptr %closeReason_.i2, align 4
  %cmp.i3 = icmp eq i32 %3, 13
  br i1 %cmp6, label %if.then7, label %if.else8

if.then7:                                         ; preds = %if.else
  br i1 %cmp.i3, label %if.then.i4, label %if.end12

if.then.i4:                                       ; preds = %if.then7
  store i32 10, ptr %closeReason_.i2, align 4
  br label %if.end12

if.else8:                                         ; preds = %if.else
  br i1 %cmp.i3, label %if.then.i8, label %if.end12

if.then.i8:                                       ; preds = %if.else8
  store i32 11, ptr %closeReason_.i2, align 4
  br label %if.end12

if.else10:                                        ; preds = %if.then
  %closeReason_.i10 = getelementptr inbounds i8, ptr %this, i64 1540
  %4 = load i32, ptr %closeReason_.i10, align 4
  %cmp.i11 = icmp eq i32 %4, 13
  br i1 %cmp.i11, label %if.then.i12, label %if.end12

if.then.i12:                                      ; preds = %if.else10
  store i32 11, ptr %closeReason_.i10, align 4
  br label %if.end12

if.end12:                                         ; preds = %if.then.i12, %if.else10, %if.then.i8, %if.else8, %if.then.i4, %if.then7, %if.then.i, %if.then5, %entry
  ret void
}